target datalayout = "e-m:e-p270:32:32-p271:32:32-p272:64:64-i64:64-i128:128-f80:128-n8:16:32:64-S128"
target triple = "x86_64-pc-linux-gnu"

%struct.Vec_Int_t_ = type { i32, i32, ptr }

; Function Attrs: inlinehint nounwind uwtable
define internal void @Vec_IntGrow(ptr noundef %0, i32 noundef %1) #3 {
  %3 = alloca ptr, align 8
  %4 = alloca i32, align 4
  store ptr %0, ptr %3, align 8, !tbaa !19
  store i32 %1, ptr %4, align 4, !tbaa !8
  %5 = load ptr, ptr %3, align 8, !tbaa !19
  %6 = getelementptr inbounds nuw %struct.Vec_Int_t_, ptr %5, i32 0, i32 0
  %7 = load i32, ptr %6, align 8, !tbaa !28
  %8 = load i32, ptr %4, align 4, !tbaa !8
  %9 = icmp sge i32 %7, %8
  br i1 %9, label %10, label %11

10:                                               ; preds = %2
  br label %36

11:                                               ; preds = %2
  %12 = load ptr, ptr %3, align 8, !tbaa !19
  %13 = getelementptr inbounds nuw %struct.Vec_Int_t_, ptr %12, i32 0, i32 2
  %14 = load ptr, ptr %13, align 8, !tbaa !29
  %15 = icmp ne ptr %14, null
  br i1 %15, label %16, label %24

16:                                               ; preds = %11
  %17 = load ptr, ptr %3, align 8, !tbaa !19
  %18 = getelementptr inbounds nuw %struct.Vec_Int_t_, ptr %17, i32 0, i32 2
  %19 = load ptr, ptr %18, align 8, !tbaa !29
  %20 = load i32, ptr %4, align 4, !tbaa !8
  %21 = sext i32 %20 to i64
  %22 = mul i64 4, %21
  %23 = call ptr @realloc(ptr noundef %19, i64 noundef %22) #16
  br label %29

24:                                               ; preds = %11
  %25 = load i32, ptr %4, align 4, !tbaa !8
  %26 = sext i32 %25 to i64
  %27 = mul i64 4, %26
  %28 = call noalias ptr @malloc(i64 noundef %27) #14
  br label %29

29:                                               ; preds = %24, %16
  %30 = phi ptr [ %23, %16 ], [ %28, %24 ]
  %31 = load ptr, ptr %3, align 8, !tbaa !19
  %32 = getelementptr inbounds nuw %struct.Vec_Int_t_, ptr %31, i32 0, i32 2
  store ptr %30, ptr %32, align 8, !tbaa !29
  %33 = load i32, ptr %4, align 4, !tbaa !8
  %34 = load ptr, ptr %3, align 8, !tbaa !19
  %35 = getelementptr inbounds nuw %struct.Vec_Int_t_, ptr %34, i32 0, i32 0
  store i32 %33, ptr %35, align 8, !tbaa !28
  br label %36

36:                                               ; preds = %29, %10
  ret void
}

; Function Attrs: inlinehint nounwind uwtable
define internal i32 @Vec_IntEntry(ptr noundef %0, i32 noundef %1) #3 {
  %3 = alloca ptr, align 8
  %4 = alloca i32, align 4
  store ptr %0, ptr %3, align 8, !tbaa !19
  store i32 %1, ptr %4, align 4, !tbaa !8
  %5 = load ptr, ptr %3, align 8, !tbaa !19
  %6 = getelementptr inbounds nuw %struct.Vec_Int_t_, ptr %5, i32 0, i32 2
  %7 = load ptr, ptr %6, align 8, !tbaa !29
  %8 = load i32, ptr %4, align 4, !tbaa !8
  %9 = sext i32 %8 to i64
  %10 = getelementptr inbounds i32, ptr %7, i64 %9
  %11 = load i32, ptr %10, align 4, !tbaa !8
  ret i32 %11
}

; Function Attrs: inlinehint nounwind uwtable
define internal i32 @Vec_IntSize(ptr noundef %0) #3 {
  %2 = alloca ptr, align 8
  store ptr %0, ptr %2, align 8, !tbaa !19
  %3 = load ptr, ptr %2, align 8, !tbaa !19
  %4 = getelementptr inbounds nuw %struct.Vec_Int_t_, ptr %3, i32 0, i32 1
  %5 = load i32, ptr %4, align 4, !tbaa !26
  ret i32 %5
}

; Function Attrs: inlinehint nounwind uwtable
define internal void @Vec_IntPush(ptr noundef %0, i32 noundef %1) #3 {
  %3 = alloca ptr, align 8
  %4 = alloca i32, align 4
  store ptr %0, ptr %3, align 8, !tbaa !19
  store i32 %1, ptr %4, align 4, !tbaa !8
  %5 = load ptr, ptr %3, align 8, !tbaa !19
  %6 = getelementptr inbounds nuw %struct.Vec_Int_t_, ptr %5, i32 0, i32 1
  %7 = load i32, ptr %6, align 4, !tbaa !26
  %8 = load ptr, ptr %3, align 8, !tbaa !19
  %9 = getelementptr inbounds nuw %struct.Vec_Int_t_, ptr %8, i32 0, i32 0
  %10 = load i32, ptr %9, align 8, !tbaa !28
  %11 = icmp eq i32 %7, %10
  br i1 %11, label %12, label %26

12:                                               ; preds = %2
  %13 = load ptr, ptr %3, align 8, !tbaa !19
  %14 = getelementptr inbounds nuw %struct.Vec_Int_t_, ptr %13, i32 0, i32 0
  %15 = load i32, ptr %14, align 8, !tbaa !28
  %16 = icmp slt i32 %15, 16
  br i1 %16, label %17, label %19

17:                                               ; preds = %12
  %18 = load ptr, ptr %3, align 8, !tbaa !19
  call void @Vec_IntGrow(ptr noundef %18, i32 noundef 16)
  br label %25

19:                                               ; preds = %12
  %20 = load ptr, ptr %3, align 8, !tbaa !19
  %21 = load ptr, ptr %3, align 8, !tbaa !19
  %22 = getelementptr inbounds nuw %struct.Vec_Int_t_, ptr %21, i32 0, i32 0
  %23 = load i32, ptr %22, align 8, !tbaa !28
  %24 = mul nsw i32 2, %23
  call void @Vec_IntGrow(ptr noundef %20, i32 noundef %24)
  br label %25

25:                                               ; preds = %19, %17
  br label %26

26:                                               ; preds = %25, %2
  %27 = load i32, ptr %4, align 4, !tbaa !8
  %28 = load ptr, ptr %3, align 8, !tbaa !19
  %29 = getelementptr inbounds nuw %struct.Vec_Int_t_, ptr %28, i32 0, i32 2
  %30 = load ptr, ptr %29, align 8, !tbaa !29
  %31 = load ptr, ptr %3, align 8, !tbaa !19
  %32 = getelementptr inbounds nuw %struct.Vec_Int_t_, ptr %31, i32 0, i32 1
  %33 = load i32, ptr %32, align 4, !tbaa !26
  %34 = add nsw i32 %33, 1
  store i32 %34, ptr %32, align 4, !tbaa !26
  %35 = sext i32 %33 to i64
  %36 = getelementptr inbounds i32, ptr %30, i64 %35
  store i32 %27, ptr %36, align 4, !tbaa !8
  ret void
}

; Function Attrs: inlinehint nounwind uwtable
define internal void @Vec_IntClear(ptr noundef %0) #3 {
  %2 = alloca ptr, align 8
  store ptr %0, ptr %2, align 8, !tbaa !19
  %3 = load ptr, ptr %2, align 8, !tbaa !19
  %4 = getelementptr inbounds nuw %struct.Vec_Int_t_, ptr %3, i32 0, i32 1
  store i32 0, ptr %4, align 4, !tbaa !26
  ret void
}

; Function Attrs: nounwind uwtable
define i32 @Abc_TtGetCM4(ptr noundef %0, i32 noundef %1, ptr noundef %2, ptr noundef %3) #0 {
  %5 = alloca ptr, align 8
  %6 = alloca i32, align 4
  %7 = alloca ptr, align 8
  %8 = alloca ptr, align 8
  %9 = alloca ptr, align 8
  %10 = alloca i32, align 4
  %11 = alloca i32, align 4
  %12 = alloca i32, align 4
  store ptr %0, ptr %5, align 8, !tbaa !3
  store i32 %1, ptr %6, align 4, !tbaa !8
  store ptr %2, ptr %7, align 8, !tbaa !17
  store ptr %3, ptr %8, align 8, !tbaa !19
  call void @llvm.lifetime.start.p0(i64 8, ptr %9) #12
  %13 = load ptr, ptr %5, align 8, !tbaa !3
  store ptr %13, ptr %9, align 8, !tbaa !30
  call void @llvm.lifetime.start.p0(i64 4, ptr %10) #12
  call void @llvm.lifetime.start.p0(i64 4, ptr %11) #12
  call void @llvm.lifetime.start.p0(i64 4, ptr %12) #12
  %14 = load i32, ptr %6, align 4, !tbaa !8
  %15 = sub nsw i32 %14, 4
  %16 = shl i32 1, %15
  store i32 %16, ptr %12, align 4, !tbaa !8
  %17 = load ptr, ptr %8, align 8, !tbaa !19
  call void @Vec_IntClear(ptr noundef %17)
  store i32 0, ptr %10, align 4, !tbaa !8
  br label %18

18:                                               ; preds = %50, %4
  %19 = load i32, ptr %10, align 4, !tbaa !8
  %20 = load i32, ptr %12, align 4, !tbaa !8
  %21 = icmp slt i32 %19, %20
  br i1 %21, label %22, label %53

22:                                               ; preds = %18
  %23 = load ptr, ptr %7, align 8, !tbaa !17
  %24 = load ptr, ptr %9, align 8, !tbaa !30
  %25 = load i32, ptr %10, align 4, !tbaa !8
  %26 = sext i32 %25 to i64
  %27 = getelementptr inbounds i16, ptr %24, i64 %26
  %28 = load i16, ptr %27, align 2, !tbaa !32
  %29 = zext i16 %28 to i64
  %30 = getelementptr inbounds nuw i32, ptr %23, i64 %29
  %31 = load i32, ptr %30, align 4, !tbaa !8
  %32 = icmp eq i32 %31, 1
  br i1 %32, label %33, label %34

33:                                               ; preds = %22
  br label %50

34:                                               ; preds = %22
  %35 = load ptr, ptr %7, align 8, !tbaa !17
  %36 = load ptr, ptr %9, align 8, !tbaa !30
  %37 = load i32, ptr %10, align 4, !tbaa !8
  %38 = sext i32 %37 to i64
  %39 = getelementptr inbounds i16, ptr %36, i64 %38
  %40 = load i16, ptr %39, align 2, !tbaa !32
  %41 = zext i16 %40 to i64
  %42 = getelementptr inbounds nuw i32, ptr %35, i64 %41
  store i32 1, ptr %42, align 4, !tbaa !8
  %43 = load ptr, ptr %8, align 8, !tbaa !19
  %44 = load ptr, ptr %9, align 8, !tbaa !30
  %45 = load i32, ptr %10, align 4, !tbaa !8
  %46 = sext i32 %45 to i64
  %47 = getelementptr inbounds i16, ptr %44, i64 %46
  %48 = load i16, ptr %47, align 2, !tbaa !32
  %49 = zext i16 %48 to i32
  call void @Vec_IntPush(ptr noundef %43, i32 noundef %49)
  br label %50

50:                                               ; preds = %34, %33
  %51 = load i32, ptr %10, align 4, !tbaa !8
  %52 = add nsw i32 %51, 1
  store i32 %52, ptr %10, align 4, !tbaa !8
  br label %18, !llvm.loop !34

53:                                               ; preds = %18
  store i32 0, ptr %10, align 4, !tbaa !8
  br label %54

54:                                               ; preds = %70, %53
  %55 = load i32, ptr %10, align 4, !tbaa !8
  %56 = load ptr, ptr %8, align 8, !tbaa !19
  %57 = call i32 @Vec_IntSize(ptr noundef %56)
  %58 = icmp slt i32 %55, %57
  br i1 %58, label %59, label %63

59:                                               ; preds = %54
  %60 = load ptr, ptr %8, align 8, !tbaa !19
  %61 = load i32, ptr %10, align 4, !tbaa !8
  %62 = call i32 @Vec_IntEntry(ptr noundef %60, i32 noundef %61)
  store i32 %62, ptr %11, align 4, !tbaa !8
  br label %63

63:                                               ; preds = %59, %54
  %64 = phi i1 [ false, %54 ], [ true, %59 ]
  br i1 %64, label %65, label %73

65:                                               ; preds = %63
  %66 = load ptr, ptr %7, align 8, !tbaa !17
  %67 = load i32, ptr %11, align 4, !tbaa !8
  %68 = sext i32 %67 to i64
  %69 = getelementptr inbounds i32, ptr %66, i64 %68
  store i32 -1, ptr %69, align 4, !tbaa !8
  br label %70

70:                                               ; preds = %65
  %71 = load i32, ptr %10, align 4, !tbaa !8
  %72 = add nsw i32 %71, 1
  store i32 %72, ptr %10, align 4, !tbaa !8
  br label %54, !llvm.loop !35

73:                                               ; preds = %63
  %74 = load ptr, ptr %8, align 8, !tbaa !19
  %75 = call i32 @Vec_IntSize(ptr noundef %74)
  call void @llvm.lifetime.end.p0(i64 4, ptr %12) #12
  call void @llvm.lifetime.end.p0(i64 4, ptr %11) #12
  call void @llvm.lifetime.end.p0(i64 4, ptr %10) #12
  call void @llvm.lifetime.end.p0(i64 8, ptr %9) #12
  ret i32 %75
}