; Function Attrs: nounwind uwtable
define i32 @Abc_TtGetCM4(ptr noundef readonly captures(none) %0, i32 noundef %1, ptr noundef captures(none) %2, ptr noundef captures(none) initializes((4, 8)) %3) local_unnamed_addr #3 {
  %5 = add nsw i32 %1, -4
  %6 = getelementptr inbounds nuw i8, ptr %3, i64 4
  store i32 0, ptr %6, align 4, !tbaa !14
  %.not = icmp eq i32 %5, 31
  br i1 %.not, label %.critedge, label %.lr.ph

.lr.ph:                                           ; preds = %4
  %7 = shl nuw i32 1, %5
  %.phi.trans.insert.i = getelementptr inbounds nuw i8, ptr %3, i64 8
  %smax = tail call i32 @llvm.smax.i32(i32 %7, i32 1)
  %wide.trip.count = zext nneg i32 %smax to i64
  br label %10

.preheader:                                       ; preds = %47
  %.val2225.pre = load i32, ptr %6, align 4, !tbaa !14
  %8 = icmp sgt i32 %.val2225.pre, 0
  br i1 %8, label %.lr.ph27, label %.critedge

.lr.ph27:                                         ; preds = %.preheader
  %9 = getelementptr i8, ptr %3, i64 8
  %.val23 = load ptr, ptr %9, align 8, !tbaa !18
  br label %48

10:                                               ; preds = %.lr.ph, %47
  %indvars.iv = phi i64 [ 0, %.lr.ph ], [ %indvars.iv.next, %47 ]
  %11 = getelementptr inbounds nuw i16, ptr %0, i64 %indvars.iv
  %12 = load i16, ptr %11, align 2, !tbaa !23
  %13 = zext i16 %12 to i64
  %14 = getelementptr inbounds nuw i32, ptr %2, i64 %13
  %15 = load i32, ptr %14, align 4, !tbaa !7
  %16 = icmp eq i32 %15, 1
  br i1 %16, label %47, label %17

17:                                               ; preds = %10
  store i32 1, ptr %14, align 4, !tbaa !7
  %18 = zext i16 %12 to i32
  %19 = load i32, ptr %6, align 4, !tbaa !14
  %20 = load i32, ptr %3, align 8, !tbaa !20
  %21 = icmp eq i32 %19, %20
  br i1 %21, label %22, label %.Vec_IntGrow.exit10_crit_edge.i

.Vec_IntGrow.exit10_crit_edge.i:                  ; preds = %17
  %.pre.i = load ptr, ptr %.phi.trans.insert.i, align 8, !tbaa !18
  br label %Vec_IntPush.exit

22:                                               ; preds = %17
  %23 = icmp slt i32 %19, 16
  br i1 %23, label %24, label %31

24:                                               ; preds = %22
  %25 = load ptr, ptr %.phi.trans.insert.i, align 8, !tbaa !18
  %.not9.i.i = icmp eq ptr %25, null
  br i1 %.not9.i.i, label %28, label %26

26:                                               ; preds = %24
  %27 = tail call dereferenceable_or_null(64) ptr @realloc(ptr noundef nonnull %25, i64 noundef 64) #25
  br label %Vec_IntGrow.exit.i

28:                                               ; preds = %24
  %29 = tail call noalias dereferenceable_or_null(64) ptr @malloc(i64 noundef 64) #26
  br label %Vec_IntGrow.exit.i

Vec_IntGrow.exit.i:                               ; preds = %28, %26
  %30 = phi ptr [ %27, %26 ], [ %29, %28 ]
  store ptr %30, ptr %.phi.trans.insert.i, align 8, !tbaa !18
  store i32 16, ptr %3, align 8, !tbaa !20
  br label %Vec_IntPush.exit

31:                                               ; preds = %22
  %32 = shl nuw nsw i32 %19, 1
  %33 = load ptr, ptr %.phi.trans.insert.i, align 8, !tbaa !18
  %.not9.i9.i = icmp eq ptr %33, null
  %34 = zext nneg i32 %32 to i64
  %35 = shl nuw nsw i64 %34, 2
  br i1 %.not9.i9.i, label %38, label %36

36:                                               ; preds = %31
  %37 = tail call ptr @realloc(ptr noundef nonnull %33, i64 noundef %35) #25
  br label %40

38:                                               ; preds = %31
  %39 = tail call noalias ptr @malloc(i64 noundef %35) #26
  br label %40

40:                                               ; preds = %38, %36
  %41 = phi ptr [ %37, %36 ], [ %39, %38 ]
  store ptr %41, ptr %.phi.trans.insert.i, align 8, !tbaa !18
  store i32 %32, ptr %3, align 8, !tbaa !20
  br label %Vec_IntPush.exit

Vec_IntPush.exit:                                 ; preds = %.Vec_IntGrow.exit10_crit_edge.i, %Vec_IntGrow.exit.i, %40
  %42 = phi ptr [ %.pre.i, %.Vec_IntGrow.exit10_crit_edge.i ], [ %41, %40 ], [ %30, %Vec_IntGrow.exit.i ]
  %43 = load i32, ptr %6, align 4, !tbaa !14
  %44 = add nsw i32 %43, 1
  store i32 %44, ptr %6, align 4, !tbaa !14
  %45 = sext i32 %43 to i64
  %46 = getelementptr inbounds i32, ptr %42, i64 %45
  store i32 %18, ptr %46, align 4, !tbaa !7
  br label %47

47:                                               ; preds = %10, %Vec_IntPush.exit
  %indvars.iv.next = add nuw nsw i64 %indvars.iv, 1
  %exitcond.not = icmp eq i64 %indvars.iv.next, %wide.trip.count
  br i1 %exitcond.not, label %.preheader, label %10, !llvm.loop !25

48:                                               ; preds = %.lr.ph27, %48
  %indvars.iv30 = phi i64 [ 0, %.lr.ph27 ], [ %indvars.iv.next31, %48 ]
  %49 = getelementptr inbounds nuw i32, ptr %.val23, i64 %indvars.iv30
  %50 = load i32, ptr %49, align 4, !tbaa !7
  %51 = sext i32 %50 to i64
  %52 = getelementptr inbounds i32, ptr %2, i64 %51
  store i32 -1, ptr %52, align 4, !tbaa !7
  %indvars.iv.next31 = add nuw nsw i64 %indvars.iv30, 1
  %.val22 = load i32, ptr %6, align 4, !tbaa !14
  %53 = sext i32 %.val22 to i64
  %54 = icmp slt i64 %indvars.iv.next31, %53
  br i1 %54, label %48, label %.critedge, !llvm.loop !26

.critedge:                                        ; preds = %48, %4, %.preheader
  %.val22.lcssa = phi i32 [ %.val2225.pre, %.preheader ], [ 0, %4 ], [ %.val22, %48 ]
  ret i32 %.val22.lcssa
}